Certificate:
    Data:
        Version: 3 (0x2)
        Serial Number: 3 (0x3)
        Signature Algorithm: sha256WithRSAEncryption
        Issuer: C=US, ST=North Carolina, L=Raleigh, O=Example, Inc., CN=example.com Certificate Authority
        Validity
            Not Before: Mar 28 20:06:43 2021 GMT
            Not After : Sep 24 20:06:43 2021 GMT
        Subject: C=US, ST=North Carolina, L=Raleigh, O=Example, Inc., CN=serverc.lab.example.com
        Subject Public Key Info:
            Public Key Algorithm: rsaEncryption
                RSA Public-Key: (2048 bit)
                Modulus:
                    00:ac:28:c9:0d:53:0e:0e:c0:15:9a:ad:eb:61:c5:
                    3b:45:fa:c0:92:e3:97:f9:7e:6b:0f:38:e3:57:93:
                    a1:e4:93:87:97:1c:f6:d5:49:35:eb:77:20:78:06:
                    5a:c0:60:38:56:d2:ed:78:6b:1a:e6:45:d3:93:39:
                    65:3c:ef:57:e4:f0:03:f5:ac:db:d0:16:05:63:74:
                    99:84:ac:d4:f6:58:30:34:62:d5:be:d7:a1:ad:94:
                    11:d2:6b:f1:47:10:7a:fa:b1:c7:56:3b:1b:51:ff:
                    e2:f2:78:fe:60:11:04:09:28:86:97:df:5e:57:13:
                    6c:e9:f4:5a:47:8b:aa:03:50:49:ed:71:61:ce:16:
                    46:f2:e4:9b:ed:d5:87:8b:62:38:bd:89:fc:20:5d:
                    be:6a:5d:a9:51:a6:e2:2d:54:80:b4:c6:03:fa:64:
                    ab:82:3d:67:62:a6:78:1e:58:df:80:a0:ab:7f:81:
                    1b:c3:ac:38:c7:e9:30:06:d0:75:9e:37:92:27:49:
                    51:bb:56:0a:f6:98:a6:5d:84:fa:a0:9f:d1:3a:16:
                    24:e2:8e:e4:e6:62:97:fe:24:e6:c0:fe:d4:16:74:
                    cf:22:5f:3b:a3:d6:2a:ad:5e:43:ee:ff:2c:b7:79:
                    e0:7f:13:95:ea:17:f5:de:33:1d:d7:e5:46:b4:18:
                    f9:8f
                Exponent: 65537 (0x10001)
        X509v3 extensions:
            X509v3 Basic Constraints: 
                CA:FALSE
            Netscape Comment: 
                OpenSSL Generated Certificate
            X509v3 Subject Key Identifier: 
                0C:6F:C8:45:30:3C:4E:23:27:AA:DD:16:BE:28:E6:40:8F:D5:95:22
            X509v3 Authority Key Identifier: 
                keyid:67:6F:50:58:F8:46:A2:43:5E:C5:BD:89:0E:96:00:A3:6C:1A:C9:A5

    Signature Algorithm: sha256WithRSAEncryption
         1b:7e:76:3c:90:99:6a:b1:94:ea:40:85:00:fe:9b:52:6d:55:
         ca:0a:15:3b:fa:47:c4:85:38:ad:9b:ba:f8:c5:4b:b9:c1:f4:
         b4:2c:b8:9f:e0:ee:5f:6f:96:a3:19:0c:15:ce:8b:ce:b9:c2:
         24:b4:38:e4:3c:58:18:ec:b7:95:b0:84:af:44:a9:5b:16:02:
         db:4a:fe:a9:9f:51:a1:4e:51:36:0d:ee:06:f9:69:26:18:0b:
         bc:f2:eb:37:84:96:84:e8:2d:bd:dd:fe:e4:9d:35:bf:39:68:
         0c:9a:0c:c1:6c:2a:08:9d:cf:44:ef:8f:e9:4c:00:71:ed:d9:
         23:b2:a7:8e:3a:39:7d:de:39:d4:6d:f8:d1:ec:5f:5f:99:00:
         ea:11:e7:fa:21:18:e2:84:85:55:f4:56:7d:1c:5c:4d:ae:1d:
         c1:c9:96:71:79:3f:6d:93:37:c1:04:6d:b4:71:d0:bd:81:0f:
         e3:cb:e3:b9:58:46:fb:c9:95:b2:78:98:cd:91:8b:67:21:f1:
         8b:63:01:cd:31:1f:37:af:69:0c:24:dd:e5:55:b6:13:fa:80:
         cf:78:bf:46:b2:61:62:e5:3d:85:f6:30:3a:2d:ee:20:f2:4c:
         1b:1d:c5:c7:65:22:30:18:f4:a9:77:ca:79:92:2d:6a:19:eb:
         69:18:52:d0
-----BEGIN CERTIFICATE-----
MIID5DCCAsygAwIBAgIBAzANBgkqhkiG9w0BAQsFADB8MQswCQYDVQQGEwJVUzEX
MBUGA1UECAwOTm9ydGggQ2Fyb2xpbmExEDAOBgNVBAcMB1JhbGVpZ2gxFjAUBgNV
BAoMDUV4YW1wbGUsIEluYy4xKjAoBgNVBAMMIWV4YW1wbGUuY29tIENlcnRpZmlj
YXRlIEF1dGhvcml0eTAeFw0yMTAzMjgyMDA2NDNaFw0yMTA5MjQyMDA2NDNaMHIx
CzAJBgNVBAYTAlVTMRcwFQYDVQQIDA5Ob3J0aCBDYXJvbGluYTEQMA4GA1UEBwwH
UmFsZWlnaDEWMBQGA1UECgwNRXhhbXBsZSwgSW5jLjEgMB4GA1UEAwwXc2VydmVy
Yy5sYWIuZXhhbXBsZS5jb20wggEiMA0GCSqGSIb3DQEBAQUAA4IBDwAwggEKAoIB
AQCsKMkNUw4OwBWarethxTtF+sCS45f5fmsPOONXk6Hkk4eXHPbVSTXrdyB4BlrA
YDhW0u14axrmRdOTOWU871fk8AP1rNvQFgVjdJmErNT2WDA0YtW+16GtlBHSa/FH
EHr6scdWOxtR/+LyeP5gEQQJKIaX315XE2zp9FpHi6oDUEntcWHOFkby5Jvt1YeL
Yji9ifwgXb5qXalRpuItVIC0xgP6ZKuCPWdipngeWN+AoKt/gRvDrDjH6TAG0HWe
N5InSVG7Vgr2mKZdhPqgn9E6FiTijuTmYpf+JObA/tQWdM8iXzuj1iqtXkPu/yy3
eeB/E5XqF/XeMx3X5Ua0GPmPAgMBAAGjezB5MAkGA1UdEwQCMAAwLAYJYIZIAYb4
QgENBB8WHU9wZW5TU0wgR2VuZXJhdGVkIENlcnRpZmljYXRlMB0GA1UdDgQWBBQM
b8hFMDxOIyeq3Ra+KOZAj9WVIjAfBgNVHSMEGDAWgBRnb1BY+EaiQ17FvYkOlgCj
bBrJpTANBgkqhkiG9w0BAQsFAAOCAQEAG352PJCZarGU6kCFAP6bUm1VygoVO/pH
xIU4rZu6+MVLucH0tCy4n+DuX2+WoxkMFc6LzrnCJLQ45DxYGOy3lbCEr0SpWxYC
20r+qZ9RoU5RNg3uBvlpJhgLvPLrN4SWhOgtvd3+5J01vzloDJoMwWwqCJ3PRO+P
6UwAce3ZI7Knjjo5fd451G340exfX5kA6hHn+iEY4oSFVfRWfRxcTa4dwcmWcXk/
bZM3wQRttHHQvYEP48vjuVhG+8mVsniYzZGLZyHxi2MBzTEfN69pDCTd5VW2E/qA
z3i/RrJhYuU9hfYwOi3uIPJMGx3Fx2UiMBj0qXfKeZItahnraRhS0A==
-----END CERTIFICATE-----
