Certificate:
    Data:
        Version: 3 (0x2)
        Serial Number: 1 (0x1)
        Signature Algorithm: sha256WithRSAEncryption
        Issuer: C=US, ST=North Carolina, L=Raleigh, O=Example, Inc., CN=example.com Certificate Authority
        Validity
            Not Before: Mar 28 20:00:30 2021 GMT
            Not After : Sep 24 20:00:30 2021 GMT
        Subject: C=US, ST=North Carolina, L=Raleigh, O=Example, Inc., CN=servera.lab.example.com
        Subject Public Key Info:
            Public Key Algorithm: rsaEncryption
                RSA Public-Key: (2048 bit)
                Modulus:
                    00:9f:fd:45:74:30:6a:22:69:64:0e:ff:23:f4:9b:
                    ce:66:1f:43:da:c6:df:91:35:3d:a0:13:e5:cc:3b:
                    64:0b:e5:a9:4f:41:06:57:55:8b:93:a0:2d:d1:87:
                    64:fe:48:f4:c0:16:69:8d:0e:b7:7f:37:6a:62:d4:
                    96:0a:e1:d8:61:1c:20:d7:19:5e:51:b3:c6:52:6f:
                    86:10:33:a7:c4:b0:1d:c4:47:a0:cc:0f:6d:51:d7:
                    c5:d3:a1:a9:6f:64:79:de:80:d0:cb:45:4e:85:65:
                    97:f4:a5:b6:07:95:0d:9c:f4:c0:b7:70:9e:b2:cf:
                    88:65:7e:ef:09:fa:1b:ce:5f:5b:2b:57:6f:0c:a7:
                    68:e2:4b:33:f6:0b:0e:ec:69:3f:d2:cd:55:6c:ff:
                    10:d0:92:f9:41:6b:00:d9:3a:00:43:e5:97:7a:0a:
                    09:78:10:c3:48:d4:c8:80:4c:c8:c3:d2:05:a4:49:
                    0a:94:3a:3e:12:df:57:de:07:28:5c:ac:dd:cd:bb:
                    9f:f6:70:4d:76:17:62:5d:3b:10:a4:c4:21:64:ad:
                    d6:80:59:71:f5:8b:e4:c8:5e:3a:a2:57:3a:fb:69:
                    f6:32:b3:87:63:af:d3:33:68:66:c9:74:f2:36:c2:
                    44:ba:a3:71:ee:6c:fb:94:b3:c3:24:6c:f2:1b:e3:
                    46:6d
                Exponent: 65537 (0x10001)
        X509v3 extensions:
            X509v3 Basic Constraints: 
                CA:FALSE
            Netscape Comment: 
                OpenSSL Generated Certificate
            X509v3 Subject Key Identifier: 
                BE:2B:C1:71:FE:8C:B4:BD:3D:A3:1B:83:A1:BD:22:01:8F:36:FB:6C
            X509v3 Authority Key Identifier: 
                keyid:67:6F:50:58:F8:46:A2:43:5E:C5:BD:89:0E:96:00:A3:6C:1A:C9:A5

    Signature Algorithm: sha256WithRSAEncryption
         4a:7f:e9:29:98:da:3e:71:af:23:7c:8c:58:f1:be:2f:f5:48:
         69:56:fe:1b:40:e4:7e:8f:1e:bd:2c:ab:3d:a4:ea:41:3b:fb:
         64:92:42:ea:7a:27:45:80:9f:4f:e8:4a:e7:41:95:6d:0c:80:
         cf:04:66:9b:b1:0a:d1:ef:31:8e:27:00:a5:d3:f6:db:54:3b:
         8f:5a:c0:61:dd:11:c7:ab:8b:ec:72:50:13:b1:b0:87:62:62:
         9b:8a:35:1b:9a:56:93:5d:8e:04:cc:be:40:e7:f5:89:d6:83:
         cf:84:43:8d:cb:20:af:e3:dd:d2:0f:8f:58:8f:3a:7d:94:68:
         ac:27:91:bc:db:79:ed:f4:4b:4c:07:3d:cc:40:07:d6:18:f3:
         06:04:2f:49:6f:65:3c:b6:e7:01:fd:b2:c8:53:db:08:4b:f2:
         69:cd:09:9b:2b:22:15:f9:be:f3:68:69:9a:b6:46:a2:fd:f6:
         5e:38:86:8a:68:24:ce:5c:a4:d1:46:ec:b1:0e:b2:57:a5:57:
         25:7b:be:27:1d:41:33:f2:06:7b:f4:8e:63:29:44:9a:e2:a1:
         07:91:80:ad:1a:42:ba:0d:98:5f:52:1d:0f:b8:dd:9d:33:79:
         12:67:c4:46:fb:d1:72:64:90:71:bd:30:54:e9:fb:7c:a6:34:
         05:27:1f:0b
-----BEGIN CERTIFICATE-----
MIID5DCCAsygAwIBAgIBATANBgkqhkiG9w0BAQsFADB8MQswCQYDVQQGEwJVUzEX
MBUGA1UECAwOTm9ydGggQ2Fyb2xpbmExEDAOBgNVBAcMB1JhbGVpZ2gxFjAUBgNV
BAoMDUV4YW1wbGUsIEluYy4xKjAoBgNVBAMMIWV4YW1wbGUuY29tIENlcnRpZmlj
YXRlIEF1dGhvcml0eTAeFw0yMTAzMjgyMDAwMzBaFw0yMTA5MjQyMDAwMzBaMHIx
CzAJBgNVBAYTAlVTMRcwFQYDVQQIDA5Ob3J0aCBDYXJvbGluYTEQMA4GA1UEBwwH
UmFsZWlnaDEWMBQGA1UECgwNRXhhbXBsZSwgSW5jLjEgMB4GA1UEAwwXc2VydmVy
YS5sYWIuZXhhbXBsZS5jb20wggEiMA0GCSqGSIb3DQEBAQUAA4IBDwAwggEKAoIB
AQCf/UV0MGoiaWQO/yP0m85mH0Paxt+RNT2gE+XMO2QL5alPQQZXVYuToC3Rh2T+
SPTAFmmNDrd/N2pi1JYK4dhhHCDXGV5Rs8ZSb4YQM6fEsB3ER6DMD21R18XToalv
ZHnegNDLRU6FZZf0pbYHlQ2c9MC3cJ6yz4hlfu8J+hvOX1srV28Mp2jiSzP2Cw7s
aT/SzVVs/xDQkvlBawDZOgBD5Zd6Cgl4EMNI1MiATMjD0gWkSQqUOj4S31feByhc
rN3Nu5/2cE12F2JdOxCkxCFkrdaAWXH1i+TIXjqiVzr7afYys4djr9MzaGbJdPI2
wkS6o3HubPuUs8MkbPIb40ZtAgMBAAGjezB5MAkGA1UdEwQCMAAwLAYJYIZIAYb4
QgENBB8WHU9wZW5TU0wgR2VuZXJhdGVkIENlcnRpZmljYXRlMB0GA1UdDgQWBBS+
K8Fx/oy0vT2jG4OhvSIBjzb7bDAfBgNVHSMEGDAWgBRnb1BY+EaiQ17FvYkOlgCj
bBrJpTANBgkqhkiG9w0BAQsFAAOCAQEASn/pKZjaPnGvI3yMWPG+L/VIaVb+G0Dk
fo8evSyrPaTqQTv7ZJJC6nonRYCfT+hK50GVbQyAzwRmm7EK0e8xjicApdP221Q7
j1rAYd0Rx6uL7HJQE7Gwh2Jim4o1G5pWk12OBMy+QOf1idaDz4RDjcsgr+Pd0g+P
WI86fZRorCeRvNt57fRLTAc9zEAH1hjzBgQvSW9lPLbnAf2yyFPbCEvyac0Jmysi
Ffm+82hpmrZGov32XjiGimgkzlyk0UbssQ6yV6VXJXu+Jx1BM/IGe/SOYylEmuKh
B5GArRpCug2YX1IdD7jdnTN5EmfERvvRcmSQcb0wVOn7fKY0BScfCw==
-----END CERTIFICATE-----
